; Function Attrs: mustprogress uwtable
define void @_ZN7openvdb5v11_015UnknownMetadata4copyERKNS0_8MetadataE(ptr noundef nonnull align 8 dereferenceable(64) %this, ptr noundef nonnull align 8 dereferenceable(8) %other) unnamed_addr #3 align 2 personality ptr @__gxx_personality_v0 {
entry:
  %n.i = alloca i32, align 4
  %n.i.i = alloca i32, align 4
  %ostr = alloca %"class.std::__cxx11::basic_ostringstream", align 8
  %istr = alloca %"class.std::__cxx11::basic_istringstream", align 8
  %ref.tmp = alloca %"class.std::__cxx11::basic_string", align 8
  call void @_ZNSt7__cxx1119basic_ostringstreamIcSt11char_traitsIcESaIcEEC1ESt13_Ios_Openmode(ptr noundef nonnull align 8 dereferenceable(112) %ostr, i32 noundef 4)
  call void @llvm.lifetime.start.p0(i64 4, ptr nonnull %n.i.i)
  %vtable.i.i = load ptr, ptr %other, align 8
  %vfn.i.i = getelementptr inbounds i8, ptr %vtable.i.i, i64 56
  %0 = load ptr, ptr %vfn.i.i, align 8
  %call.i.i2 = invoke noundef i32 %0(ptr noundef nonnull align 8 dereferenceable(8) %other)
          to label %call.i.i.noexc unwind label %lpad

call.i.i.noexc:                                   ; preds = %entry
  store i32 %call.i.i2, ptr %n.i.i, align 4
  %call2.i.i3 = invoke noundef nonnull align 8 dereferenceable(8) ptr @_ZNSo5writeEPKcl(ptr noundef nonnull align 8 dereferenceable(8) %ostr, ptr noundef nonnull %n.i.i, i64 noundef 4)
          to label %call2.i.i.noexc unwind label %lpad

call2.i.i.noexc:                                  ; preds = %call.i.i.noexc
  call void @llvm.lifetime.end.p0(i64 4, ptr nonnull %n.i.i)
  %vtable.i = load ptr, ptr %other, align 8
  %vfn.i = getelementptr inbounds i8, ptr %vtable.i, i64 72
  %1 = load ptr, ptr %vfn.i, align 8
  invoke void %1(ptr noundef nonnull align 8 dereferenceable(8) %other, ptr noundef nonnull align 8 dereferenceable(8) %ostr)
          to label %invoke.cont unwind label %lpad

invoke.cont:                                      ; preds = %call2.i.i.noexc
  invoke void @_ZNKSt7__cxx1119basic_ostringstreamIcSt11char_traitsIcESaIcEE3strEv(ptr nonnull sret(%"class.std::__cxx11::basic_string") align 8 %ref.tmp, ptr noundef nonnull align 8 dereferenceable(112) %ostr)
          to label %invoke.cont2 unwind label %lpad

invoke.cont2:                                     ; preds = %invoke.cont
  invoke void @_ZNSt7__cxx1119basic_istringstreamIcSt11char_traitsIcESaIcEEC1ERKNS_12basic_stringIcS2_S3_EESt13_Ios_Openmode(ptr noundef nonnull align 8 dereferenceable(120) %istr, ptr noundef nonnull align 8 dereferenceable(32) %ref.tmp, i32 noundef 4)
          to label %invoke.cont4 unwind label %lpad3

invoke.cont4:                                     ; preds = %invoke.cont2
  call void @_ZNSt7__cxx1112basic_stringIcSt11char_traitsIcESaIcEED1Ev(ptr noundef nonnull align 8 dereferenceable(32) %ref.tmp) #17
  call void @llvm.lifetime.start.p0(i64 4, ptr nonnull %n.i)
  store i32 0, ptr %n.i, align 4
  %call.i4 = invoke noundef nonnull align 8 dereferenceable(16) ptr @_ZNSi4readEPcl(ptr noundef nonnull align 8 dereferenceable(16) %istr, ptr noundef nonnull %n.i, i64 noundef 4)
          to label %invoke.cont6 unwind label %lpad5

invoke.cont6:                                     ; preds = %invoke.cont4
  %2 = load i32, ptr %n.i, align 4
  call void @llvm.lifetime.end.p0(i64 4, ptr nonnull %n.i)
  %vtable = load ptr, ptr %this, align 8
  %vfn = getelementptr inbounds i8, ptr %vtable, i64 64
  %3 = load ptr, ptr %vfn, align 8
  invoke void %3(ptr noundef nonnull align 8 dereferenceable(64) %this, ptr noundef nonnull align 8 dereferenceable(16) %istr, i32 noundef %2)
          to label %invoke.cont7 unwind label %lpad5

invoke.cont7:                                     ; preds = %invoke.cont6
  call void @_ZNSt7__cxx1119basic_istringstreamIcSt11char_traitsIcESaIcEED1Ev(ptr noundef nonnull align 8 dereferenceable(120) %istr) #17
  call void @_ZNSt7__cxx1119basic_ostringstreamIcSt11char_traitsIcESaIcEED1Ev(ptr noundef nonnull align 8 dereferenceable(112) %ostr) #17
  ret void

lpad:                                             ; preds = %call2.i.i.noexc, %call.i.i.noexc, %entry, %invoke.cont
  %4 = landingpad { ptr, i32 }
          cleanup
  br label %ehcleanup

lpad3:                                            ; preds = %invoke.cont2
  %5 = landingpad { ptr, i32 }
          cleanup
  call void @_ZNSt7__cxx1112basic_stringIcSt11char_traitsIcESaIcEED1Ev(ptr noundef nonnull align 8 dereferenceable(32) %ref.tmp) #17
  br label %ehcleanup

lpad5:                                            ; preds = %invoke.cont4, %invoke.cont6
  %6 = landingpad { ptr, i32 }
          cleanup
  call void @_ZNSt7__cxx1119basic_istringstreamIcSt11char_traitsIcESaIcEED1Ev(ptr noundef nonnull align 8 dereferenceable(120) %istr) #17
  br label %ehcleanup

ehcleanup:                                        ; preds = %lpad5, %lpad3, %lpad
  %.pn = phi { ptr, i32 } [ %6, %lpad5 ], [ %5, %lpad3 ], [ %4, %lpad ]
  call void @_ZNSt7__cxx1119basic_ostringstreamIcSt11char_traitsIcESaIcEED1Ev(ptr noundef nonnull align 8 dereferenceable(112) %ostr) #17
  resume { ptr, i32 } %.pn
}